; Function Attrs: nounwind uwtable
define ptr @l_Lean_PrettyPrinter_Delaborator_TopDownAnalyze_analyze_analyzeApp___lambda__2(ptr noundef readnone captures(none) %0, ptr noundef %1, ptr noundef %2, ptr noundef %3, ptr noundef %4, ptr noundef %5, ptr noundef %6, ptr noundef %7) local_unnamed_addr #1 {
  tail call void @lean_inc_heartbeat() #7
  %9 = tail call noalias ptr @mi_malloc_small(i64 noundef 32) #7
  %10 = icmp eq ptr %9, null
  br i1 %10, label %11, label %lean_alloc_closure.exit

11:                                               ; preds = %8
  tail call void @lean_internal_panic_out_of_memory() #8
  unreachable

lean_alloc_closure.exit:                          ; preds = %8
  %12 = getelementptr inbounds nuw i8, ptr %9, i64 4
  store i32 1, ptr %9, align 4, !tbaa !8
  store i32 -184549344, ptr %12, align 4
  %13 = getelementptr inbounds nuw i8, ptr %9, i64 8
  store ptr @l_Lean_PrettyPrinter_Delaborator_TopDownAnalyze_analyze___boxed, ptr %13, align 8, !tbaa !11
  %14 = getelementptr inbounds nuw i8, ptr %9, i64 16
  store i16 8, ptr %14, align 8, !tbaa !15
  %15 = getelementptr inbounds nuw i8, ptr %9, i64 18
  store i16 1, ptr %15, align 2, !tbaa !15
  %16 = getelementptr inbounds nuw i8, ptr %9, i64 24
  store ptr inttoptr (i64 1 to ptr), ptr %16, align 8, !tbaa !11
  %17 = tail call ptr @l_Lean_PrettyPrinter_Delaborator_TopDownAnalyze_withKnowing___rarg(i8 noundef zeroext 1, i8 noundef zeroext 0, ptr noundef nonnull %9, ptr noundef %1, ptr noundef %2, ptr noundef %3, ptr noundef %4, ptr noundef %5, ptr noundef %6, ptr noundef %7)
  ret ptr %17
}